; Function Attrs: alwaysinline norecurse nounwind uwtable
define internal void @_ZNK8LightGBM12BinaryMetricINS_19BinaryLoglossMetricEE4EvalEPKdPKNS_17ObjectiveFunctionE.omp_outlined.47(ptr noalias noundef readonly captures(none) %0, ptr noalias readnone captures(none) %1, ptr noundef readonly captures(none) %2, ptr noundef nonnull align 8 captures(none) dereferenceable(8) %3, ptr noundef nonnull readonly align 8 captures(none) dereferenceable(8) %4) #15 personality ptr @__gxx_personality_v0 {
  %6 = alloca i32, align 4
  %7 = alloca i32, align 4
  %8 = alloca i32, align 4
  %9 = alloca i32, align 4
  %10 = alloca double, align 8
  %11 = alloca [1 x ptr], align 8
  %12 = getelementptr inbounds nuw i8, ptr %2, i64 8
  %13 = load i32, ptr %12, align 8, !tbaa !168
  %14 = icmp sgt i32 %13, 0
  br i1 %14, label %15, label %59

15:                                               ; preds = %5
  %16 = add nsw i32 %13, -1
  call void @llvm.lifetime.start.p0(i64 4, ptr nonnull %6) #16
  store i32 0, ptr %6, align 4, !tbaa !127
  call void @llvm.lifetime.start.p0(i64 4, ptr nonnull %7) #16
  store i32 %16, ptr %7, align 4, !tbaa !127
  call void @llvm.lifetime.start.p0(i64 4, ptr nonnull %8) #16
  store i32 1, ptr %8, align 4, !tbaa !127
  call void @llvm.lifetime.start.p0(i64 4, ptr nonnull %9) #16
  store i32 0, ptr %9, align 4, !tbaa !127
  call void @llvm.lifetime.start.p0(i64 8, ptr nonnull %10) #16
  store double 0.000000e+00, ptr %10, align 8, !tbaa !84
  %17 = load i32, ptr %0, align 4, !tbaa !127
  call void @__kmpc_for_static_init_4(ptr nonnull @1, i32 %17, i32 34, ptr nonnull %9, ptr nonnull %6, ptr nonnull %7, ptr nonnull %8, i32 1, i32 1)
  %18 = load i32, ptr %7, align 4, !tbaa !127
  %19 = call i32 @llvm.smin.i32(i32 %18, i32 %16)
  store i32 %19, ptr %7, align 4, !tbaa !127
  %20 = load i32, ptr %6, align 4, !tbaa !127
  %.not16 = icmp sgt i32 %20, %19
  br i1 %.not16, label %._crit_edge, label %.lr.ph

.lr.ph:                                           ; preds = %15
  %21 = getelementptr inbounds nuw i8, ptr %2, i64 16
  %22 = load ptr, ptr %21, align 8, !tbaa !170
  %23 = load ptr, ptr %4, align 8, !tbaa !81
  %24 = getelementptr inbounds nuw i8, ptr %2, i64 24
  %25 = load ptr, ptr %24, align 8, !tbaa !171
  %26 = sext i32 %20 to i64
  %27 = add nsw i32 %19, 1
  br label %28

28:                                               ; preds = %.lr.ph, %_ZN8LightGBM19BinaryLoglossMetric11LossOnPointEfd.exit
  %indvars.iv = phi i64 [ %26, %.lr.ph ], [ %indvars.iv.next, %_ZN8LightGBM19BinaryLoglossMetric11LossOnPointEfd.exit ]
  %29 = phi double [ 0.000000e+00, %.lr.ph ], [ %49, %_ZN8LightGBM19BinaryLoglossMetric11LossOnPointEfd.exit ]
  %30 = getelementptr inbounds float, ptr %22, i64 %indvars.iv
  %31 = load float, ptr %30, align 4, !tbaa !78
  %32 = getelementptr inbounds double, ptr %23, i64 %indvars.iv
  %33 = load double, ptr %32, align 8, !tbaa !84
  %34 = fcmp ugt float %31, 0.000000e+00
  br i1 %34, label %41, label %35

35:                                               ; preds = %28
  %36 = fsub double 1.000000e+00, %33
  %37 = fcmp ogt double %36, 0x3CD203AFA0000000
  br i1 %37, label %38, label %_ZN8LightGBM19BinaryLoglossMetric11LossOnPointEfd.exit

38:                                               ; preds = %35
  %39 = call double @llvm.log.f64(double %36), !tbaa !127
  %40 = fneg double %39
  br label %_ZN8LightGBM19BinaryLoglossMetric11LossOnPointEfd.exit

41:                                               ; preds = %28
  %42 = fcmp ogt double %33, 0x3CD203AFA0000000
  br i1 %42, label %43, label %_ZN8LightGBM19BinaryLoglossMetric11LossOnPointEfd.exit

43:                                               ; preds = %41
  %44 = call double @llvm.log.f64(double %33), !tbaa !127
  %45 = fneg double %44
  br label %_ZN8LightGBM19BinaryLoglossMetric11LossOnPointEfd.exit

_ZN8LightGBM19BinaryLoglossMetric11LossOnPointEfd.exit: ; preds = %43, %41, %38, %35
  %.0.i = phi double [ %40, %38 ], [ %45, %43 ], [ 0x404144F6A0000000, %41 ], [ 0x404144F6A0000000, %35 ]
  %46 = getelementptr inbounds float, ptr %25, i64 %indvars.iv
  %47 = load float, ptr %46, align 4, !tbaa !78
  %48 = fpext float %47 to double
  %49 = call double @llvm.fmuladd.f64(double %.0.i, double %48, double %29)
  store double %49, ptr %10, align 8, !tbaa !84
  %indvars.iv.next = add nsw i64 %indvars.iv, 1
  %lftr.wideiv = trunc i64 %indvars.iv.next to i32
  %exitcond.not = icmp eq i32 %27, %lftr.wideiv
  br i1 %exitcond.not, label %._crit_edge, label %28

._crit_edge:                                      ; preds = %_ZN8LightGBM19BinaryLoglossMetric11LossOnPointEfd.exit, %15
  call void @__kmpc_for_static_fini(ptr nonnull @1, i32 %17)
  store ptr %10, ptr %11, align 8
  %50 = call i32 @__kmpc_reduce_nowait(ptr nonnull @2, i32 %17, i32 1, i64 8, ptr nonnull %11, ptr nonnull @_ZNK8LightGBM12BinaryMetricINS_19BinaryLoglossMetricEE4EvalEPKdPKNS_17ObjectiveFunctionE.omp_outlined.47.omp.reduction.reduction_func, ptr nonnull @.gomp_critical_user_.reduction.var)
  switch i32 %50, label %58 [
    i32 1, label %51
    i32 2, label %55
  ]

51:                                               ; preds = %._crit_edge
  %52 = load double, ptr %3, align 8, !tbaa !84
  %53 = load double, ptr %10, align 8, !tbaa !84
  %54 = fadd double %52, %53
  store double %54, ptr %3, align 8, !tbaa !84
  call void @__kmpc_end_reduce_nowait(ptr nonnull @2, i32 %17, ptr nonnull @.gomp_critical_user_.reduction.var)
  br label %58

55:                                               ; preds = %._crit_edge
  %56 = load double, ptr %10, align 8, !tbaa !84
  %57 = atomicrmw fadd ptr %3, double %56 monotonic, align 8
  br label %58

58:                                               ; preds = %55, %51, %._crit_edge
  call void @llvm.lifetime.end.p0(i64 8, ptr nonnull %10) #16
  call void @llvm.lifetime.end.p0(i64 4, ptr nonnull %9) #16
  call void @llvm.lifetime.end.p0(i64 4, ptr nonnull %8) #16
  call void @llvm.lifetime.end.p0(i64 4, ptr nonnull %7) #16
  call void @llvm.lifetime.end.p0(i64 4, ptr nonnull %6) #16
  br label %59

59:                                               ; preds = %58, %5
  ret void
}